#include <math.h>
#include <stdio.h>
#include <stdlib.h>
#include <string.h>

int main()
{
    int n,i,a,b,c,k=0,h=0;
    scanf("%d",&n);
    if (n<=4)
        printf("empty");
    else
        for (i=3;i<n-1;i++)
        {
            for (a=2;a<=(i/2);a++)
            {
            if (i%a==0)
            {
                k=1;
                break;
            }
            }    
            if(k==0) 
            {
                b=i+2;
                for(c=2;c<=(b/2);c++)
                {
                    if(b%c==0)
                    {
                    h=1;
                    break;
                    }
                }    
                if(h==0)
                printf("%d %d\n",i,b);
            }
            k=0;
            h=0;
            
        }

    return 0;
}       

