; ModuleID = 'source-C-CXX/59/309.c'
source_filename = "source-C-CXX/59/309.c"
target datalayout = "e-m:e-p270:32:32-p271:32:32-p272:64:64-i64:64-f80:128-n8:16:32:64-S128"
target triple = "x86_64-pc-linux-gnu"

@.str = private unnamed_addr constant [3 x i8] c"%d\00", align 1
@.str.1 = private unnamed_addr constant [6 x i8] c"empty\00", align 1
@.str.2 = private unnamed_addr constant [7 x i8] c"%d %d\0A\00", align 1

; Function Attrs: nofree nounwind sspstrong uwtable
define dso_local i32 @main() local_unnamed_addr #0 {
  %1 = alloca i32, align 4
  %2 = bitcast i32* %1 to i8*
  call void @llvm.lifetime.start.p0i8(i64 4, i8* nonnull %2) #4
  %3 = call i32 (i8*, ...) @__isoc99_scanf(i8* getelementptr inbounds ([3 x i8], [3 x i8]* @.str, i64 0, i64 0), i32* nonnull %1)
  %4 = load i32, i32* %1, align 4, !tbaa !5
  %5 = icmp slt i32 %4, 5
  br i1 %5, label %6, label %8

6:                                                ; preds = %0
  %7 = call i32 (i8*, ...) @printf(i8* nonnull dereferenceable(1) getelementptr inbounds ([6 x i8], [6 x i8]* @.str.1, i64 0, i64 0))
  br label %41

8:                                                ; preds = %0, %35
  %9 = phi i32 [ %36, %35 ], [ %4, %0 ]
  %10 = phi i32 [ %40, %35 ], [ 5, %0 ]
  %11 = phi i32 [ %37, %35 ], [ 3, %0 ]
  %12 = lshr i32 %10, 1
  %13 = lshr i32 %11, 1
  %14 = call i32 @llvm.umax.i32(i32 %13, i32 2)
  %15 = icmp ult i32 %11, 4
  br i1 %15, label %23, label %19

16:                                               ; preds = %19
  %17 = add nuw nsw i32 %20, 1
  %18 = icmp eq i32 %20, %14
  br i1 %18, label %23, label %19, !llvm.loop !9

19:                                               ; preds = %8, %16
  %20 = phi i32 [ %17, %16 ], [ 2, %8 ]
  %21 = urem i32 %11, %20
  %22 = icmp eq i32 %21, 0
  br i1 %22, label %35, label %16

23:                                               ; preds = %16, %8
  %24 = add nuw nsw i32 %11, 2
  br label %28

25:                                               ; preds = %28
  %26 = add nuw nsw i32 %29, 1
  %27 = icmp eq i32 %29, %12
  br i1 %27, label %32, label %28, !llvm.loop !11

28:                                               ; preds = %23, %25
  %29 = phi i32 [ %26, %25 ], [ 2, %23 ]
  %30 = urem i32 %24, %29
  %31 = icmp eq i32 %30, 0
  br i1 %31, label %35, label %25

32:                                               ; preds = %25
  %33 = call i32 (i8*, ...) @printf(i8* nonnull dereferenceable(1) getelementptr inbounds ([7 x i8], [7 x i8]* @.str.2, i64 0, i64 0), i32 %11, i32 %24)
  %34 = load i32, i32* %1, align 4, !tbaa !5
  br label %35

35:                                               ; preds = %19, %28, %32
  %36 = phi i32 [ %34, %32 ], [ %9, %28 ], [ %9, %19 ]
  %37 = add nuw nsw i32 %11, 1
  %38 = add nsw i32 %36, -1
  %39 = icmp slt i32 %37, %38
  %40 = add nuw i32 %10, 1
  br i1 %39, label %8, label %41, !llvm.loop !12

41:                                               ; preds = %35, %6
  call void @llvm.lifetime.end.p0i8(i64 4, i8* nonnull %2) #4
  ret i32 0
}

; Function Attrs: argmemonly mustprogress nofree nosync nounwind willreturn
declare void @llvm.lifetime.start.p0i8(i64 immarg, i8* nocapture) #1

; Function Attrs: nofree nounwind
declare noundef i32 @__isoc99_scanf(i8* nocapture noundef readonly, ...) local_unnamed_addr #2

; Function Attrs: nofree nounwind
declare noundef i32 @printf(i8* nocapture noundef readonly, ...) local_unnamed_addr #2

; Function Attrs: argmemonly mustprogress nofree nosync nounwind willreturn
declare void @llvm.lifetime.end.p0i8(i64 immarg, i8* nocapture) #1

; Function Attrs: nofree nosync nounwind readnone speculatable willreturn
declare i32 @llvm.umax.i32(i32, i32) #3


!llvm.module.flags = !{!0, !1, !2, !3}
!llvm.ident = !{!4}

!0 = !{i32 1, !"wchar_size", i32 4}
!1 = !{i32 7, !"PIC Level", i32 2}
!2 = !{i32 7, !"PIE Level", i32 2}
!3 = !{i32 7, !"uwtable", i32 1}
!4 = !{!"clang version 13.0.0"}
!5 = !{!6, !6, i64 0}
!6 = !{!"int", !7, i64 0}
!7 = !{!"omnipotent char", !8, i64 0}
!8 = !{!"Simple C/C++ TBAA"}
!9 = distinct !{!9, !10}
!10 = !{!"llvm.loop.mustprogress"}
!11 = distinct !{!11, !10}
!12 = distinct !{!12, !10}
